; Function Attrs: mustprogress uwtable
define void @_ZN7rocksdb24CompressedSecondaryCache6InsertERKNS_5SliceEPvPKNS_5Cache15CacheItemHelperEb(ptr noalias sret(%"class.rocksdb::Status") align 8 %agg.result, ptr nocapture noundef nonnull readonly align 8 dereferenceable(217) %this, ptr noundef nonnull align 8 dereferenceable(16) %key, ptr noundef %value, ptr nocapture noundef readonly %helper, i1 noundef zeroext %force_insert) unnamed_addr #0 align 2 personality ptr @__gxx_personality_v0 {
entry:
  %cmp = icmp eq ptr %value, null
  br i1 %cmp, label %if.then, label %if.end

if.then:                                          ; preds = %entry
  store i8 4, ptr %agg.result, align 8, !alias.scope !35
  %subcode_.i.i = getelementptr inbounds i8, ptr %agg.result, i64 1
  store i8 0, ptr %subcode_.i.i, align 1, !alias.scope !35
  %sev_.i.i = getelementptr inbounds i8, ptr %agg.result, i64 2
  %state_.i.i = getelementptr inbounds i8, ptr %agg.result, i64 8
  store ptr null, ptr %state_.i.i, align 8, !alias.scope !35
  store i32 0, ptr %sev_.i.i, align 2, !alias.scope !35
  br label %return

if.end:                                           ; preds = %entry
  br i1 %force_insert, label %if.end3, label %land.lhs.true

land.lhs.true:                                    ; preds = %if.end
  %call = tail call noundef zeroext i1 @_ZN7rocksdb24CompressedSecondaryCache16MaybeInsertDummyERKNS_5SliceE(ptr noundef nonnull align 8 dereferenceable(217) %this, ptr noundef nonnull align 8 dereferenceable(16) %key)
  br i1 %call, label %if.then2, label %if.end3

if.then2:                                         ; preds = %land.lhs.true
  %state_.i.i3 = getelementptr inbounds i8, ptr %agg.result, i64 8
  store ptr null, ptr %state_.i.i3, align 8, !alias.scope !38
  tail call void @llvm.memset.p0.i64(ptr noundef nonnull align 8 dereferenceable(6) %agg.result, i8 0, i64 6, i1 false), !alias.scope !38
  br label %return

if.end3:                                          ; preds = %land.lhs.true, %if.end
  tail call void @_ZN7rocksdb24CompressedSecondaryCache14InsertInternalERKNS_5SliceEPvPKNS_5Cache15CacheItemHelperENS_15CompressionTypeENS_9CacheTierE(ptr sret(%"class.rocksdb::Status") align 8 %agg.result, ptr noundef nonnull align 8 dereferenceable(217) %this, ptr noundef nonnull align 8 dereferenceable(16) %key, ptr noundef nonnull %value, ptr noundef %helper, i8 noundef zeroext 0, i8 noundef zeroext 1)
  br label %return

return:                                           ; preds = %if.end3, %if.then2, %if.then
  ret void
}